; ModuleID = '38/352.c'
source_filename = "38/352.c"
target datalayout = "e-m:e-p270:32:32-p271:32:32-p272:64:64-i64:64-f80:128-n8:16:32:64-S128"
target triple = "x86_64-pc-linux-gnu"

@.str = private unnamed_addr constant [3 x i8] c"%d\00", align 1
@.str.1 = private unnamed_addr constant [4 x i8] c"%lf\00", align 1
@.str.2 = private unnamed_addr constant [7 x i8] c"%.5lf\0A\00", align 1

; Function Attrs: noinline nounwind uwtable
define dso_local i32 @main() #0 {
  %1 = alloca i32, align 4
  %2 = alloca i32, align 4
  %3 = alloca i32, align 4
  %4 = alloca i32, align 4
  %5 = alloca i32, align 4
  %6 = alloca double, align 8
  %7 = alloca double, align 8
  %8 = alloca double, align 8
  %9 = alloca double, align 8
  %10 = alloca double, align 8
  store i32 0, i32* %1, align 4
  %11 = call i32 (i8*, ...) @__isoc99_scanf(i8* getelementptr inbounds ([3 x i8], [3 x i8]* @.str, i64 0, i64 0), i32* %5)
  store i32 1, i32* %2, align 4
  br label %12

12:                                               ; preds = %59, %0
  %13 = load i32, i32* %2, align 4
  %14 = load i32, i32* %5, align 4
  %15 = icmp sle i32 %13, %14
  br i1 %15, label %16, label %62

16:                                               ; preds = %12
  %17 = call i32 (i8*, ...) @__isoc99_scanf(i8* getelementptr inbounds ([3 x i8], [3 x i8]* @.str, i64 0, i64 0), i32* %4)
  store double 0.000000e+00, double* %6, align 8
  store double 0.000000e+00, double* %7, align 8
  store double 0.000000e+00, double* %9, align 8
  store i32 1, i32* %3, align 4
  br label %18

18:                                               ; preds = %32, %16
  %19 = load i32, i32* %3, align 4
  %20 = load i32, i32* %4, align 4
  %21 = icmp sle i32 %19, %20
  br i1 %21, label %22, label %35

22:                                               ; preds = %18
  %23 = call i32 (i8*, ...) @__isoc99_scanf(i8* getelementptr inbounds ([4 x i8], [4 x i8]* @.str.1, i64 0, i64 0), double* %8)
  %24 = load double, double* %6, align 8
  %25 = load double, double* %8, align 8
  %26 = load double, double* %8, align 8
  %27 = fmul double %25, %26
  %28 = fadd double %24, %27
  store double %28, double* %6, align 8
  %29 = load double, double* %7, align 8
  %30 = load double, double* %8, align 8
  %31 = fadd double %29, %30
  store double %31, double* %7, align 8
  br label %32

32:                                               ; preds = %22
  %33 = load i32, i32* %3, align 4
  %34 = add nsw i32 %33, 1
  store i32 %34, i32* %3, align 4
  br label %18

35:                                               ; preds = %18
  %36 = load double, double* %7, align 8
  %37 = load i32, i32* %4, align 4
  %38 = sitofp i32 %37 to double
  %39 = fdiv double %36, %38
  store double %39, double* %9, align 8
  %40 = load double, double* %6, align 8
  %41 = load double, double* %7, align 8
  %42 = fmul double 2.000000e+00, %41
  %43 = load double, double* %9, align 8
  %44 = fmul double %42, %43
  %45 = fsub double %40, %44
  %46 = load i32, i32* %4, align 4
  %47 = sitofp i32 %46 to double
  %48 = load double, double* %9, align 8
  %49 = fmul double %47, %48
  %50 = load double, double* %9, align 8
  %51 = fmul double %49, %50
  %52 = fadd double %45, %51
  store double %52, double* %10, align 8
  %53 = load double, double* %10, align 8
  %54 = load i32, i32* %4, align 4
  %55 = sitofp i32 %54 to double
  %56 = fdiv double %53, %55
  %57 = call double @sqrt(double %56) #3
  %58 = call i32 (i8*, ...) @printf(i8* getelementptr inbounds ([7 x i8], [7 x i8]* @.str.2, i64 0, i64 0), double %57)
  br label %59

59:                                               ; preds = %35
  %60 = load i32, i32* %2, align 4
  %61 = add nsw i32 %60, 1
  store i32 %61, i32* %2, align 4
  br label %12

62:                                               ; preds = %12
  ret i32 0
}

declare dso_local i32 @__isoc99_scanf(i8*, ...) #1

declare dso_local i32 @printf(i8*, ...) #1

; Function Attrs: nounwind
declare dso_local double @sqrt(double) #2


!llvm.module.flags = !{!0}
!llvm.ident = !{!1}

!0 = !{i32 1, !"wchar_size", i32 4}
!1 = !{!"clang version 10.0.0-4ubuntu1 "}
